; ModuleID = '19/600.c'
source_filename = "19/600.c"
target datalayout = "e-m:e-p270:32:32-p271:32:32-p272:64:64-i64:64-f80:128-n8:16:32:64-S128"
target triple = "x86_64-pc-linux-gnu"

@.str = private unnamed_addr constant [2 x i8] c" \00", align 1
@.str.1 = private unnamed_addr constant [3 x i8] c"%s\00", align 1

; Function Attrs: noinline nounwind uwtable
define dso_local i32 @main() #0 {
  %1 = alloca i32, align 4
  %2 = alloca [100 x i8], align 16
  %3 = alloca [100 x i8], align 16
  %4 = alloca [100 x i8], align 16
  %5 = alloca [100 x i8], align 16
  %6 = alloca i32, align 4
  %7 = alloca i32, align 4
  %8 = alloca i32, align 4
  %9 = alloca i32, align 4
  %10 = alloca i32, align 4
  %11 = alloca i32, align 4
  store i32 0, i32* %1, align 4
  %12 = getelementptr inbounds [100 x i8], [100 x i8]* %2, i64 0, i64 0
  %13 = call i32 (i8*, ...) bitcast (i32 (...)* @gets to i32 (i8*, ...)*)(i8* %12)
  %14 = getelementptr inbounds [100 x i8], [100 x i8]* %3, i64 0, i64 0
  %15 = call i32 (i8*, ...) bitcast (i32 (...)* @gets to i32 (i8*, ...)*)(i8* %14)
  %16 = getelementptr inbounds [100 x i8], [100 x i8]* %4, i64 0, i64 0
  %17 = call i32 (i8*, ...) bitcast (i32 (...)* @gets to i32 (i8*, ...)*)(i8* %16)
  %18 = getelementptr inbounds [100 x i8], [100 x i8]* %2, i64 0, i64 0
  %19 = call i8* @strcat(i8* %18, i8* getelementptr inbounds ([2 x i8], [2 x i8]* @.str, i64 0, i64 0)) #4
  store i32 0, i32* %9, align 4
  %20 = getelementptr inbounds [100 x i8], [100 x i8]* %2, i64 0, i64 0
  %21 = call i64 @strlen(i8* %20) #5
  %22 = trunc i64 %21 to i32
  store i32 %22, i32* %6, align 4
  store i32 0, i32* %7, align 4
  br label %23

23:                                               ; preds = %38, %0
  %24 = load i32, i32* %7, align 4
  %25 = load i32, i32* %6, align 4
  %26 = icmp slt i32 %24, %25
  br i1 %26, label %27, label %41

27:                                               ; preds = %23
  %28 = load i32, i32* %7, align 4
  %29 = sext i32 %28 to i64
  %30 = getelementptr inbounds [100 x i8], [100 x i8]* %2, i64 0, i64 %29
  %31 = load i8, i8* %30, align 1
  %32 = sext i8 %31 to i32
  %33 = icmp eq i32 %32, 32
  br i1 %33, label %34, label %37

34:                                               ; preds = %27
  %35 = load i32, i32* %9, align 4
  %36 = add nsw i32 %35, 1
  store i32 %36, i32* %9, align 4
  br label %37

37:                                               ; preds = %34, %27
  br label %38

38:                                               ; preds = %37
  %39 = load i32, i32* %7, align 4
  %40 = add nsw i32 %39, 1
  store i32 %40, i32* %7, align 4
  br label %23

41:                                               ; preds = %23
  store i32 0, i32* %11, align 4
  store i32 0, i32* %10, align 4
  br label %42

42:                                               ; preds = %98, %41
  %43 = load i32, i32* %10, align 4
  %44 = load i32, i32* %9, align 4
  %45 = icmp slt i32 %43, %44
  br i1 %45, label %46, label %101

46:                                               ; preds = %42
  %47 = load i32, i32* %11, align 4
  store i32 %47, i32* %7, align 4
  store i32 0, i32* %8, align 4
  br label %48

48:                                               ; preds = %74, %46
  %49 = load i32, i32* %7, align 4
  %50 = load i32, i32* %6, align 4
  %51 = icmp slt i32 %49, %50
  br i1 %51, label %52, label %79

52:                                               ; preds = %48
  %53 = load i32, i32* %7, align 4
  %54 = sext i32 %53 to i64
  %55 = getelementptr inbounds [100 x i8], [100 x i8]* %2, i64 0, i64 %54
  %56 = load i8, i8* %55, align 1
  %57 = sext i8 %56 to i32
  %58 = icmp ne i32 %57, 32
  br i1 %58, label %59, label %67

59:                                               ; preds = %52
  %60 = load i32, i32* %7, align 4
  %61 = sext i32 %60 to i64
  %62 = getelementptr inbounds [100 x i8], [100 x i8]* %2, i64 0, i64 %61
  %63 = load i8, i8* %62, align 1
  %64 = load i32, i32* %8, align 4
  %65 = sext i32 %64 to i64
  %66 = getelementptr inbounds [100 x i8], [100 x i8]* %5, i64 0, i64 %65
  store i8 %63, i8* %66, align 1
  br label %73

67:                                               ; preds = %52
  %68 = load i32, i32* %8, align 4
  %69 = sext i32 %68 to i64
  %70 = getelementptr inbounds [100 x i8], [100 x i8]* %5, i64 0, i64 %69
  store i8 0, i8* %70, align 1
  %71 = load i32, i32* %7, align 4
  %72 = add nsw i32 %71, 1
  store i32 %72, i32* %11, align 4
  br label %79

73:                                               ; preds = %59
  br label %74

74:                                               ; preds = %73
  %75 = load i32, i32* %7, align 4
  %76 = add nsw i32 %75, 1
  store i32 %76, i32* %7, align 4
  %77 = load i32, i32* %8, align 4
  %78 = add nsw i32 %77, 1
  store i32 %78, i32* %8, align 4
  br label %48

79:                                               ; preds = %67, %48
  %80 = getelementptr inbounds [100 x i8], [100 x i8]* %5, i64 0, i64 0
  %81 = getelementptr inbounds [100 x i8], [100 x i8]* %3, i64 0, i64 0
  %82 = call i32 @strcmp(i8* %80, i8* %81) #5
  %83 = icmp eq i32 %82, 0
  br i1 %83, label %84, label %88

84:                                               ; preds = %79
  %85 = getelementptr inbounds [100 x i8], [100 x i8]* %5, i64 0, i64 0
  %86 = getelementptr inbounds [100 x i8], [100 x i8]* %4, i64 0, i64 0
  %87 = call i8* @strcpy(i8* %85, i8* %86) #4
  br label %88

88:                                               ; preds = %84, %79
  %89 = getelementptr inbounds [100 x i8], [100 x i8]* %5, i64 0, i64 0
  %90 = call i32 (i8*, ...) @printf(i8* getelementptr inbounds ([3 x i8], [3 x i8]* @.str.1, i64 0, i64 0), i8* %89)
  %91 = load i32, i32* %10, align 4
  %92 = load i32, i32* %9, align 4
  %93 = sub nsw i32 %92, 1
  %94 = icmp slt i32 %91, %93
  br i1 %94, label %95, label %97

95:                                               ; preds = %88
  %96 = call i32 (i8*, ...) @printf(i8* getelementptr inbounds ([2 x i8], [2 x i8]* @.str, i64 0, i64 0))
  br label %97

97:                                               ; preds = %95, %88
  br label %98

98:                                               ; preds = %97
  %99 = load i32, i32* %10, align 4
  %100 = add nsw i32 %99, 1
  store i32 %100, i32* %10, align 4
  br label %42

101:                                              ; preds = %42
  %102 = load i32, i32* %1, align 4
  ret i32 %102
}

declare dso_local i32 @gets(...) #1

; Function Attrs: nounwind
declare dso_local i8* @strcat(i8*, i8*) #2

; Function Attrs: nounwind readonly
declare dso_local i64 @strlen(i8*) #3

; Function Attrs: nounwind readonly
declare dso_local i32 @strcmp(i8*, i8*) #3

; Function Attrs: nounwind
declare dso_local i8* @strcpy(i8*, i8*) #2

declare dso_local i32 @printf(i8*, ...) #1


!llvm.module.flags = !{!0}
!llvm.ident = !{!1}

!0 = !{i32 1, !"wchar_size", i32 4}
!1 = !{!"clang version 10.0.0-4ubuntu1 "}
